target datalayout = "e-m:e-p270:32:32-p271:32:32-p272:64:64-i64:64-i128:128-f80:128-n8:16:32:64-S128"
target triple = "x86_64-unknown-linux-gnu"

%"struct.llvh::AlignedCharArray.74" = type { [256 x i8] }
%"class.llvh::SmallDenseMap.71" = type { i32, i32, %"struct.llvh::AlignedCharArrayUnion.73" }
%"struct.llvh::AlignedCharArrayUnion.73" = type { %"struct.llvh::AlignedCharArray.74" }
%"class.hermes::LoopAnalysis" = type { %"class.llvh::SmallDenseMap.71", %"class.llvh::SmallDenseMap.71" }
%"struct.std::pair.250" = type { ptr, ptr }
%"struct.llvh::detail::DenseMapPair.249" = type { %"struct.std::pair.250" }
%"struct.llvh::SmallDenseMap<const hermes::BasicBlock *, hermes::BasicBlock *, 16>::LargeRep" = type { ptr, i32 }

; Function Attrs: mustprogress nounwind uwtable
define linkonce_odr hidden noundef ptr @_ZNK4llvh13SmallDenseMapIPKN6hermes10BasicBlockEPS2_Lj16ENS_12DenseMapInfoIS4_EENS_6detail12DenseMapPairIS4_S5_EEE11getLargeRepEv(ptr noundef nonnull align 8 dereferenceable(264) %this) #0 comdat align 2 {
entry:
  %this.addr = alloca ptr, align 8
  store ptr %this, ptr %this.addr, align 8
  %this1 = load ptr, ptr %this.addr, align 8
  %storage = getelementptr inbounds %"class.llvh::SmallDenseMap.71", ptr %this1, i32 0, i32 2
  %buffer = getelementptr inbounds %"struct.llvh::AlignedCharArray.74", ptr %storage, i32 0, i32 0
  %arraydecay = getelementptr inbounds [256 x i8], ptr %buffer, i64 0, i64 0
  ret ptr %arraydecay
}

; Function Attrs: mustprogress nounwind uwtable
define linkonce_odr hidden noundef ptr @_ZNK4llvh13SmallDenseMapIPKN6hermes10BasicBlockEPS2_Lj16ENS_12DenseMapInfoIS4_EENS_6detail12DenseMapPairIS4_S5_EEE16getInlineBucketsEv(ptr noundef nonnull align 8 dereferenceable(264) %this) #0 comdat align 2 {
entry:
  %this.addr = alloca ptr, align 8
  store ptr %this, ptr %this.addr, align 8
  %this1 = load ptr, ptr %this.addr, align 8
  %storage = getelementptr inbounds %"class.llvh::SmallDenseMap.71", ptr %this1, i32 0, i32 2
  %buffer = getelementptr inbounds %"struct.llvh::AlignedCharArray.74", ptr %storage, i32 0, i32 0
  %arraydecay = getelementptr inbounds [256 x i8], ptr %buffer, i64 0, i64 0
  ret ptr %arraydecay
}

; Function Attrs: mustprogress nounwind uwtable
define linkonce_odr hidden noundef i32 @_ZN4llvh12DenseMapInfoIPKN6hermes10BasicBlockEE12getHashValueES4_(ptr noundef %PtrVal) #0 comdat align 2 {
entry:
  %PtrVal.addr = alloca ptr, align 8
  store ptr %PtrVal, ptr %PtrVal.addr, align 8
  %0 = load ptr, ptr %PtrVal.addr, align 8
  %1 = ptrtoint ptr %0 to i64
  %conv = trunc i64 %1 to i32
  %shr = lshr i32 %conv, 4
  %2 = load ptr, ptr %PtrVal.addr, align 8
  %3 = ptrtoint ptr %2 to i64
  %conv1 = trunc i64 %3 to i32
  %shr2 = lshr i32 %conv1, 9
  %xor = xor i32 %shr, %shr2
  ret i32 %xor
}

; Function Attrs: mustprogress nounwind uwtable
define linkonce_odr hidden noundef ptr @_ZN4llvh12DenseMapInfoIPKN6hermes10BasicBlockEE15getTombstoneKeyEv() #0 comdat align 2 {
entry:
  %Val = alloca i64, align 8
  store i64 -2, ptr %Val, align 8
  %0 = load i64, ptr %Val, align 8
  %shl = shl i64 %0, 3
  store i64 %shl, ptr %Val, align 8
  %1 = load i64, ptr %Val, align 8
  %2 = inttoptr i64 %1 to ptr
  ret ptr %2
}

; Function Attrs: mustprogress nounwind uwtable
define linkonce_odr hidden noundef ptr @_ZN4llvh12DenseMapInfoIPKN6hermes10BasicBlockEE11getEmptyKeyEv() #0 comdat align 2 {
entry:
  %Val = alloca i64, align 8
  store i64 -1, ptr %Val, align 8
  %0 = load i64, ptr %Val, align 8
  %shl = shl i64 %0, 3
  store i64 %shl, ptr %Val, align 8
  %1 = load i64, ptr %Val, align 8
  %2 = inttoptr i64 %1 to ptr
  ret ptr %2
}

; Function Attrs: mustprogress nounwind uwtable
define linkonce_odr hidden noundef i32 @_ZNK4llvh13SmallDenseMapIPKN6hermes10BasicBlockEPS2_Lj16ENS_12DenseMapInfoIS4_EENS_6detail12DenseMapPairIS4_S5_EEE13getNumBucketsEv(ptr noundef nonnull align 8 dereferenceable(264) %this) #0 comdat align 2 {
entry:
  %this.addr = alloca ptr, align 8
  store ptr %this, ptr %this.addr, align 8
  %this1 = load ptr, ptr %this.addr, align 8
  %bf.load = load i32, ptr %this1, align 8
  %bf.clear = and i32 %bf.load, 1
  %tobool = icmp ne i32 %bf.clear, 0
  br i1 %tobool, label %cond.true, label %cond.false

cond.true:                                        ; preds = %entry
  br label %cond.end

cond.false:                                       ; preds = %entry
  %call = call noundef ptr @_ZNK4llvh13SmallDenseMapIPKN6hermes10BasicBlockEPS2_Lj16ENS_12DenseMapInfoIS4_EENS_6detail12DenseMapPairIS4_S5_EEE11getLargeRepEv(ptr noundef nonnull align 8 dereferenceable(264) %this1)
  %NumBuckets = getelementptr inbounds %"struct.llvh::SmallDenseMap<const hermes::BasicBlock *, hermes::BasicBlock *, 16>::LargeRep", ptr %call, i32 0, i32 1
  %0 = load i32, ptr %NumBuckets, align 8
  br label %cond.end

cond.end:                                         ; preds = %cond.false, %cond.true
  %cond = phi i32 [ 16, %cond.true ], [ %0, %cond.false ]
  ret i32 %cond
}

; Function Attrs: mustprogress nounwind uwtable
define linkonce_odr hidden noundef ptr @_ZNK4llvh13SmallDenseMapIPKN6hermes10BasicBlockEPS2_Lj16ENS_12DenseMapInfoIS4_EENS_6detail12DenseMapPairIS4_S5_EEE10getBucketsEv(ptr noundef nonnull align 8 dereferenceable(264) %this) #0 comdat align 2 {
entry:
  %this.addr = alloca ptr, align 8
  store ptr %this, ptr %this.addr, align 8
  %this1 = load ptr, ptr %this.addr, align 8
  %bf.load = load i32, ptr %this1, align 8
  %bf.clear = and i32 %bf.load, 1
  %tobool = icmp ne i32 %bf.clear, 0
  br i1 %tobool, label %cond.true, label %cond.false

cond.true:                                        ; preds = %entry
  %call = call noundef ptr @_ZNK4llvh13SmallDenseMapIPKN6hermes10BasicBlockEPS2_Lj16ENS_12DenseMapInfoIS4_EENS_6detail12DenseMapPairIS4_S5_EEE16getInlineBucketsEv(ptr noundef nonnull align 8 dereferenceable(264) %this1)
  br label %cond.end

cond.false:                                       ; preds = %entry
  %call2 = call noundef ptr @_ZNK4llvh13SmallDenseMapIPKN6hermes10BasicBlockEPS2_Lj16ENS_12DenseMapInfoIS4_EENS_6detail12DenseMapPairIS4_S5_EEE11getLargeRepEv(ptr noundef nonnull align 8 dereferenceable(264) %this1)
  %Buckets = getelementptr inbounds %"struct.llvh::SmallDenseMap<const hermes::BasicBlock *, hermes::BasicBlock *, 16>::LargeRep", ptr %call2, i32 0, i32 0
  %0 = load ptr, ptr %Buckets, align 8
  br label %cond.end

cond.end:                                         ; preds = %cond.false, %cond.true
  %cond = phi ptr [ %call, %cond.true ], [ %0, %cond.false ]
  ret ptr %cond
}

; Function Attrs: mustprogress nounwind uwtable
define linkonce_odr hidden noundef zeroext i1 @_ZN4llvh12DenseMapInfoIPKN6hermes10BasicBlockEE7isEqualES4_S4_(ptr noundef %LHS, ptr noundef %RHS) #0 comdat align 2 {
entry:
  %LHS.addr = alloca ptr, align 8
  %RHS.addr = alloca ptr, align 8
  store ptr %LHS, ptr %LHS.addr, align 8
  store ptr %RHS, ptr %RHS.addr, align 8
  %0 = load ptr, ptr %LHS.addr, align 8
  %1 = load ptr, ptr %RHS.addr, align 8
  %cmp = icmp eq ptr %0, %1
  ret i1 %cmp
}

; Function Attrs: mustprogress nounwind uwtable
define linkonce_odr hidden noundef nonnull align 8 dereferenceable(8) ptr @_ZNK4llvh6detail12DenseMapPairIPKN6hermes10BasicBlockEPS3_E8getFirstEv(ptr noundef nonnull align 8 dereferenceable(16) %this) #0 comdat align 2 {
entry:
  %this.addr = alloca ptr, align 8
  store ptr %this, ptr %this.addr, align 8
  %this1 = load ptr, ptr %this.addr, align 8
  %first = getelementptr inbounds %"struct.std::pair.250", ptr %this1, i32 0, i32 0
  ret ptr %first
}

; Function Attrs: mustprogress nounwind uwtable
define linkonce_odr hidden noundef i32 @_ZN4llvh12DenseMapBaseINS_13SmallDenseMapIPKN6hermes10BasicBlockEPS3_Lj16ENS_12DenseMapInfoIS5_EENS_6detail12DenseMapPairIS5_S6_EEEES5_S6_S8_SB_E12getHashValueERKS5_(ptr noundef nonnull align 8 dereferenceable(8) %Val) #0 comdat align 2 {
entry:
  %Val.addr = alloca ptr, align 8
  store ptr %Val, ptr %Val.addr, align 8
  %0 = load ptr, ptr %Val.addr, align 8
  %1 = load ptr, ptr %0, align 8
  %call = call noundef i32 @_ZN4llvh12DenseMapInfoIPKN6hermes10BasicBlockEE12getHashValueES4_(ptr noundef %1)
  ret i32 %call
}

; Function Attrs: mustprogress nounwind uwtable
define linkonce_odr hidden noundef ptr @_ZN4llvh12DenseMapBaseINS_13SmallDenseMapIPKN6hermes10BasicBlockEPS3_Lj16ENS_12DenseMapInfoIS5_EENS_6detail12DenseMapPairIS5_S6_EEEES5_S6_S8_SB_E15getTombstoneKeyEv() #0 comdat align 2 {
entry:
  %call = call noundef ptr @_ZN4llvh12DenseMapInfoIPKN6hermes10BasicBlockEE15getTombstoneKeyEv()
  ret ptr %call
}

; Function Attrs: mustprogress nounwind uwtable
define linkonce_odr hidden noundef ptr @_ZN4llvh12DenseMapBaseINS_13SmallDenseMapIPKN6hermes10BasicBlockEPS3_Lj16ENS_12DenseMapInfoIS5_EENS_6detail12DenseMapPairIS5_S6_EEEES5_S6_S8_SB_E11getEmptyKeyEv() #0 comdat align 2 {
entry:
  %call = call noundef ptr @_ZN4llvh12DenseMapInfoIPKN6hermes10BasicBlockEE11getEmptyKeyEv()
  ret ptr %call
}

; Function Attrs: mustprogress nounwind uwtable
define linkonce_odr hidden noundef i32 @_ZNK4llvh12DenseMapBaseINS_13SmallDenseMapIPKN6hermes10BasicBlockEPS3_Lj16ENS_12DenseMapInfoIS5_EENS_6detail12DenseMapPairIS5_S6_EEEES5_S6_S8_SB_E13getNumBucketsEv(ptr noundef nonnull align 1 dereferenceable(1) %this) #0 comdat align 2 {
entry:
  %this.addr = alloca ptr, align 8
  store ptr %this, ptr %this.addr, align 8
  %this1 = load ptr, ptr %this.addr, align 8
  %call = call noundef i32 @_ZNK4llvh13SmallDenseMapIPKN6hermes10BasicBlockEPS2_Lj16ENS_12DenseMapInfoIS4_EENS_6detail12DenseMapPairIS4_S5_EEE13getNumBucketsEv(ptr noundef nonnull align 8 dereferenceable(264) %this1)
  ret i32 %call
}

; Function Attrs: mustprogress nounwind uwtable
define linkonce_odr hidden noundef ptr @_ZNK4llvh12DenseMapBaseINS_13SmallDenseMapIPKN6hermes10BasicBlockEPS3_Lj16ENS_12DenseMapInfoIS5_EENS_6detail12DenseMapPairIS5_S6_EEEES5_S6_S8_SB_E10getBucketsEv(ptr noundef nonnull align 1 dereferenceable(1) %this) #0 comdat align 2 {
entry:
  %this.addr = alloca ptr, align 8
  store ptr %this, ptr %this.addr, align 8
  %this1 = load ptr, ptr %this.addr, align 8
  %call = call noundef ptr @_ZNK4llvh13SmallDenseMapIPKN6hermes10BasicBlockEPS2_Lj16ENS_12DenseMapInfoIS4_EENS_6detail12DenseMapPairIS4_S5_EEE10getBucketsEv(ptr noundef nonnull align 8 dereferenceable(264) %this1)
  ret ptr %call
}

; Function Attrs: mustprogress nounwind uwtable
define linkonce_odr hidden noundef nonnull align 8 dereferenceable(8) ptr @_ZNK4llvh6detail12DenseMapPairIPKN6hermes10BasicBlockEPS3_E9getSecondEv(ptr noundef nonnull align 8 dereferenceable(16) %this) #0 comdat align 2 {
entry:
  %this.addr = alloca ptr, align 8
  store ptr %this, ptr %this.addr, align 8
  %this1 = load ptr, ptr %this.addr, align 8
  %second = getelementptr inbounds %"struct.std::pair.250", ptr %this1, i32 0, i32 1
  ret ptr %second
}

; Function Attrs: mustprogress nounwind uwtable
define linkonce_odr hidden noundef zeroext i1 @_ZNK4llvh12DenseMapBaseINS_13SmallDenseMapIPKN6hermes10BasicBlockEPS3_Lj16ENS_12DenseMapInfoIS5_EENS_6detail12DenseMapPairIS5_S6_EEEES5_S6_S8_SB_E15LookupBucketForIS5_EEbRKT_RPKSB_(ptr noundef nonnull align 1 dereferenceable(1) %this, ptr noundef nonnull align 8 dereferenceable(8) %Val, ptr noundef nonnull align 8 dereferenceable(8) %FoundBucket) #0 comdat align 2 {
entry:
  %retval = alloca i1, align 1
  %this.addr = alloca ptr, align 8
  %Val.addr = alloca ptr, align 8
  %FoundBucket.addr = alloca ptr, align 8
  %BucketsPtr = alloca ptr, align 8
  %NumBuckets = alloca i32, align 4
  %FoundTombstone = alloca ptr, align 8
  %EmptyKey = alloca ptr, align 8
  %TombstoneKey = alloca ptr, align 8
  %BucketNo = alloca i32, align 4
  %ProbeAmt = alloca i32, align 4
  %ThisBucket = alloca ptr, align 8
  store ptr %this, ptr %this.addr, align 8
  store ptr %Val, ptr %Val.addr, align 8
  store ptr %FoundBucket, ptr %FoundBucket.addr, align 8
  %this1 = load ptr, ptr %this.addr, align 8
  %call = call noundef ptr @_ZNK4llvh12DenseMapBaseINS_13SmallDenseMapIPKN6hermes10BasicBlockEPS3_Lj16ENS_12DenseMapInfoIS5_EENS_6detail12DenseMapPairIS5_S6_EEEES5_S6_S8_SB_E10getBucketsEv(ptr noundef nonnull align 1 dereferenceable(1) %this1)
  store ptr %call, ptr %BucketsPtr, align 8
  %call2 = call noundef i32 @_ZNK4llvh12DenseMapBaseINS_13SmallDenseMapIPKN6hermes10BasicBlockEPS3_Lj16ENS_12DenseMapInfoIS5_EENS_6detail12DenseMapPairIS5_S6_EEEES5_S6_S8_SB_E13getNumBucketsEv(ptr noundef nonnull align 1 dereferenceable(1) %this1)
  store i32 %call2, ptr %NumBuckets, align 4
  %0 = load i32, ptr %NumBuckets, align 4
  %cmp = icmp eq i32 %0, 0
  br i1 %cmp, label %if.then, label %if.end

if.then:                                          ; preds = %entry
  %1 = load ptr, ptr %FoundBucket.addr, align 8
  store ptr null, ptr %1, align 8
  store i1 false, ptr %retval, align 1
  br label %return

if.end:                                           ; preds = %entry
  store ptr null, ptr %FoundTombstone, align 8
  %call3 = call noundef ptr @_ZN4llvh12DenseMapBaseINS_13SmallDenseMapIPKN6hermes10BasicBlockEPS3_Lj16ENS_12DenseMapInfoIS5_EENS_6detail12DenseMapPairIS5_S6_EEEES5_S6_S8_SB_E11getEmptyKeyEv()
  store ptr %call3, ptr %EmptyKey, align 8
  %call4 = call noundef ptr @_ZN4llvh12DenseMapBaseINS_13SmallDenseMapIPKN6hermes10BasicBlockEPS3_Lj16ENS_12DenseMapInfoIS5_EENS_6detail12DenseMapPairIS5_S6_EEEES5_S6_S8_SB_E15getTombstoneKeyEv()
  store ptr %call4, ptr %TombstoneKey, align 8
  %2 = load ptr, ptr %Val.addr, align 8
  %call5 = call noundef i32 @_ZN4llvh12DenseMapBaseINS_13SmallDenseMapIPKN6hermes10BasicBlockEPS3_Lj16ENS_12DenseMapInfoIS5_EENS_6detail12DenseMapPairIS5_S6_EEEES5_S6_S8_SB_E12getHashValueERKS5_(ptr noundef nonnull align 8 dereferenceable(8) %2)
  %3 = load i32, ptr %NumBuckets, align 4
  %sub = sub i32 %3, 1
  %and = and i32 %call5, %sub
  store i32 %and, ptr %BucketNo, align 4
  store i32 1, ptr %ProbeAmt, align 4
  br label %while.body

while.body:                                       ; preds = %if.end18, %if.end
  %4 = load ptr, ptr %BucketsPtr, align 8
  %5 = load i32, ptr %BucketNo, align 4
  %idx.ext = zext i32 %5 to i64
  %add.ptr = getelementptr inbounds %"struct.llvh::detail::DenseMapPair.249", ptr %4, i64 %idx.ext
  store ptr %add.ptr, ptr %ThisBucket, align 8
  %6 = load ptr, ptr %Val.addr, align 8
  %7 = load ptr, ptr %6, align 8
  %8 = load ptr, ptr %ThisBucket, align 8
  %call6 = call noundef nonnull align 8 dereferenceable(8) ptr @_ZNK4llvh6detail12DenseMapPairIPKN6hermes10BasicBlockEPS3_E8getFirstEv(ptr noundef nonnull align 8 dereferenceable(16) %8)
  %9 = load ptr, ptr %call6, align 8
  %call7 = call noundef zeroext i1 @_ZN4llvh12DenseMapInfoIPKN6hermes10BasicBlockEE7isEqualES4_S4_(ptr noundef %7, ptr noundef %9)
  br i1 %call7, label %if.then8, label %if.end9

if.then8:                                         ; preds = %while.body
  %10 = load ptr, ptr %ThisBucket, align 8
  %11 = load ptr, ptr %FoundBucket.addr, align 8
  store ptr %10, ptr %11, align 8
  store i1 true, ptr %retval, align 1
  br label %return

if.end9:                                          ; preds = %while.body
  %12 = load ptr, ptr %ThisBucket, align 8
  %call10 = call noundef nonnull align 8 dereferenceable(8) ptr @_ZNK4llvh6detail12DenseMapPairIPKN6hermes10BasicBlockEPS3_E8getFirstEv(ptr noundef nonnull align 8 dereferenceable(16) %12)
  %13 = load ptr, ptr %call10, align 8
  %14 = load ptr, ptr %EmptyKey, align 8
  %call11 = call noundef zeroext i1 @_ZN4llvh12DenseMapInfoIPKN6hermes10BasicBlockEE7isEqualES4_S4_(ptr noundef %13, ptr noundef %14)
  br i1 %call11, label %if.then12, label %if.end13

if.then12:                                        ; preds = %if.end9
  %15 = load ptr, ptr %FoundTombstone, align 8
  %tobool = icmp ne ptr %15, null
  br i1 %tobool, label %cond.true, label %cond.false

cond.true:                                        ; preds = %if.then12
  %16 = load ptr, ptr %FoundTombstone, align 8
  br label %cond.end

cond.false:                                       ; preds = %if.then12
  %17 = load ptr, ptr %ThisBucket, align 8
  br label %cond.end

cond.end:                                         ; preds = %cond.false, %cond.true
  %cond = phi ptr [ %16, %cond.true ], [ %17, %cond.false ]
  %18 = load ptr, ptr %FoundBucket.addr, align 8
  store ptr %cond, ptr %18, align 8
  store i1 false, ptr %retval, align 1
  br label %return

if.end13:                                         ; preds = %if.end9
  %19 = load ptr, ptr %ThisBucket, align 8
  %call14 = call noundef nonnull align 8 dereferenceable(8) ptr @_ZNK4llvh6detail12DenseMapPairIPKN6hermes10BasicBlockEPS3_E8getFirstEv(ptr noundef nonnull align 8 dereferenceable(16) %19)
  %20 = load ptr, ptr %call14, align 8
  %21 = load ptr, ptr %TombstoneKey, align 8
  %call15 = call noundef zeroext i1 @_ZN4llvh12DenseMapInfoIPKN6hermes10BasicBlockEE7isEqualES4_S4_(ptr noundef %20, ptr noundef %21)
  br i1 %call15, label %land.lhs.true, label %if.end18

land.lhs.true:                                    ; preds = %if.end13
  %22 = load ptr, ptr %FoundTombstone, align 8
  %tobool16 = icmp ne ptr %22, null
  br i1 %tobool16, label %if.end18, label %if.then17

if.then17:                                        ; preds = %land.lhs.true
  %23 = load ptr, ptr %ThisBucket, align 8
  store ptr %23, ptr %FoundTombstone, align 8
  br label %if.end18

if.end18:                                         ; preds = %if.then17, %land.lhs.true, %if.end13
  %24 = load i32, ptr %ProbeAmt, align 4
  %inc = add i32 %24, 1
  store i32 %inc, ptr %ProbeAmt, align 4
  %25 = load i32, ptr %BucketNo, align 4
  %add = add i32 %25, %24
  store i32 %add, ptr %BucketNo, align 4
  %26 = load i32, ptr %NumBuckets, align 4
  %sub19 = sub i32 %26, 1
  %27 = load i32, ptr %BucketNo, align 4
  %and20 = and i32 %27, %sub19
  store i32 %and20, ptr %BucketNo, align 4
  br label %while.body, !llvm.loop !14

return:                                           ; preds = %cond.end, %if.then8, %if.then
  %28 = load i1, ptr %retval, align 1
  ret i1 %28
}

; Function Attrs: mustprogress nounwind uwtable
define linkonce_odr hidden noundef ptr @_ZNK4llvh12DenseMapBaseINS_13SmallDenseMapIPKN6hermes10BasicBlockEPS3_Lj16ENS_12DenseMapInfoIS5_EENS_6detail12DenseMapPairIS5_S6_EEEES5_S6_S8_SB_E6lookupES5_(ptr noundef nonnull align 1 dereferenceable(1) %this, ptr noundef %Val) #0 comdat align 2 {
entry:
  %retval = alloca ptr, align 8
  %this.addr = alloca ptr, align 8
  %Val.addr = alloca ptr, align 8
  %TheBucket = alloca ptr, align 8
  store ptr %this, ptr %this.addr, align 8
  store ptr %Val, ptr %Val.addr, align 8
  %this1 = load ptr, ptr %this.addr, align 8
  %call = call noundef zeroext i1 @_ZNK4llvh12DenseMapBaseINS_13SmallDenseMapIPKN6hermes10BasicBlockEPS3_Lj16ENS_12DenseMapInfoIS5_EENS_6detail12DenseMapPairIS5_S6_EEEES5_S6_S8_SB_E15LookupBucketForIS5_EEbRKT_RPKSB_(ptr noundef nonnull align 1 dereferenceable(1) %this1, ptr noundef nonnull align 8 dereferenceable(8) %Val.addr, ptr noundef nonnull align 8 dereferenceable(8) %TheBucket)
  br i1 %call, label %if.then, label %if.end

if.then:                                          ; preds = %entry
  %0 = load ptr, ptr %TheBucket, align 8
  %call2 = call noundef nonnull align 8 dereferenceable(8) ptr @_ZNK4llvh6detail12DenseMapPairIPKN6hermes10BasicBlockEPS3_E9getSecondEv(ptr noundef nonnull align 8 dereferenceable(16) %0)
  %1 = load ptr, ptr %call2, align 8
  store ptr %1, ptr %retval, align 8
  br label %return

if.end:                                           ; preds = %entry
  store ptr null, ptr %retval, align 8
  br label %return

return:                                           ; preds = %if.end, %if.then
  %2 = load ptr, ptr %retval, align 8
  ret ptr %2
}

; Function Attrs: mustprogress nounwind uwtable
define hidden noundef ptr @_ZNK6hermes12LoopAnalysis13getLoopHeaderEPKNS_10BasicBlockE(ptr noundef nonnull align 8 dereferenceable(528) %this, ptr noundef %BB) #0 align 2 {
entry:
  %this.addr = alloca ptr, align 8
  %BB.addr = alloca ptr, align 8
  store ptr %this, ptr %this.addr, align 8
  store ptr %BB, ptr %BB.addr, align 8
  %this1 = load ptr, ptr %this.addr, align 8
  %blockToHeader_ = getelementptr inbounds %"class.hermes::LoopAnalysis", ptr %this1, i32 0, i32 0
  %0 = load ptr, ptr %BB.addr, align 8
  %call = call noundef ptr @_ZNK4llvh12DenseMapBaseINS_13SmallDenseMapIPKN6hermes10BasicBlockEPS3_Lj16ENS_12DenseMapInfoIS5_EENS_6detail12DenseMapPairIS5_S6_EEEES5_S6_S8_SB_E6lookupES5_(ptr noundef nonnull align 1 dereferenceable(1) %blockToHeader_, ptr noundef %0)
  ret ptr %call
}