; Function Attrs: mustprogress nofree norecurse nosync nounwind willreturn memory(read, inaccessiblemem: none) uwtable
define hidden noundef ptr @_ZNK6hermes12LoopAnalysis13getLoopHeaderEPKNS_10BasicBlockE(ptr nocapture noundef nonnull readonly align 8 dereferenceable(528) %this, ptr noundef %BB) local_unnamed_addr #2 align 2 {
entry:
  %bf.load.i.i.i.i = load i32, ptr %this, align 8
  %bf.clear.i.i.i.i = and i32 %bf.load.i.i.i.i, 1
  %tobool.not.i.i.i.i = icmp eq i32 %bf.clear.i.i.i.i, 0
  %storage.i.i.i.i.i = getelementptr inbounds i8, ptr %this, i64 8
  %0 = load ptr, ptr %storage.i.i.i.i.i, align 8
  %cond.i.i.i.i = select i1 %tobool.not.i.i.i.i, ptr %0, ptr %storage.i.i.i.i.i
  %NumBuckets.i.i.i.i = getelementptr inbounds i8, ptr %this, i64 16
  %1 = load i32, ptr %NumBuckets.i.i.i.i, align 8
  %cond.i.i18.i.i = select i1 %tobool.not.i.i.i.i, i32 %1, i32 16
  %cmp.i.i = icmp eq i32 %cond.i.i18.i.i, 0
  br i1 %cmp.i.i, label %_ZNK4llvh12DenseMapBaseINS_13SmallDenseMapIPKN6hermes10BasicBlockEPS3_Lj16ENS_12DenseMapInfoIS5_EENS_6detail12DenseMapPairIS5_S6_EEEES5_S6_S8_SB_E6lookupES5_.exit, label %if.end.i.i

if.end.i.i:                                       ; preds = %entry
  %2 = ptrtoint ptr %BB to i64
  %conv.i.i.i.i = trunc i64 %2 to i32
  %shr.i.i.i.i = lshr i32 %conv.i.i.i.i, 4
  %shr2.i.i.i.i = lshr i32 %conv.i.i.i.i, 9
  %xor.i.i.i.i = xor i32 %shr.i.i.i.i, %shr2.i.i.i.i
  %sub.i.i = add i32 %cond.i.i18.i.i, -1
  %BucketNo.023.i.i = and i32 %sub.i.i, %xor.i.i.i.i
  %idx.ext24.i.i = zext nneg i32 %BucketNo.023.i.i to i64
  %add.ptr25.i.i = getelementptr inbounds %"struct.llvh::detail::DenseMapPair.249", ptr %cond.i.i.i.i, i64 %idx.ext24.i.i
  %3 = load ptr, ptr %add.ptr25.i.i, align 8
  %cmp.i26.i.i = icmp eq ptr %3, %BB
  br i1 %cmp.i26.i.i, label %if.then.i, label %if.end9.i.i

if.end9.i.i:                                      ; preds = %if.end.i.i, %if.end13.i.i
  %4 = phi ptr [ %5, %if.end13.i.i ], [ %3, %if.end.i.i ]
  %BucketNo.029.i.i = phi i32 [ %BucketNo.0.i.i, %if.end13.i.i ], [ %BucketNo.023.i.i, %if.end.i.i ]
  %ProbeAmt.028.i.i = phi i32 [ %inc.i.i, %if.end13.i.i ], [ 1, %if.end.i.i ]
  %cmp.i19.i.i = icmp eq ptr %4, inttoptr (i64 -8 to ptr)
  br i1 %cmp.i19.i.i, label %_ZNK4llvh12DenseMapBaseINS_13SmallDenseMapIPKN6hermes10BasicBlockEPS3_Lj16ENS_12DenseMapInfoIS5_EENS_6detail12DenseMapPairIS5_S6_EEEES5_S6_S8_SB_E6lookupES5_.exit, label %if.end13.i.i

if.end13.i.i:                                     ; preds = %if.end9.i.i
  %inc.i.i = add i32 %ProbeAmt.028.i.i, 1
  %add.i.i = add i32 %ProbeAmt.028.i.i, %BucketNo.029.i.i
  %BucketNo.0.i.i = and i32 %add.i.i, %sub.i.i
  %idx.ext.i.i = zext i32 %BucketNo.0.i.i to i64
  %add.ptr.i.i = getelementptr inbounds %"struct.llvh::detail::DenseMapPair.249", ptr %cond.i.i.i.i, i64 %idx.ext.i.i
  %5 = load ptr, ptr %add.ptr.i.i, align 8
  %cmp.i.i.i = icmp eq ptr %5, %BB
  br i1 %cmp.i.i.i, label %if.then.i, label %if.end9.i.i, !llvm.loop !19

if.then.i:                                        ; preds = %if.end13.i.i, %if.end.i.i
  %6 = phi i64 [ %idx.ext24.i.i, %if.end.i.i ], [ %idx.ext.i.i, %if.end13.i.i ]
  %second.i.i = getelementptr inbounds %"struct.llvh::detail::DenseMapPair.249", ptr %cond.i.i.i.i, i64 %6, i32 0, i32 1
  %7 = load ptr, ptr %second.i.i, align 8
  br label %_ZNK4llvh12DenseMapBaseINS_13SmallDenseMapIPKN6hermes10BasicBlockEPS3_Lj16ENS_12DenseMapInfoIS5_EENS_6detail12DenseMapPairIS5_S6_EEEES5_S6_S8_SB_E6lookupES5_.exit

_ZNK4llvh12DenseMapBaseINS_13SmallDenseMapIPKN6hermes10BasicBlockEPS3_Lj16ENS_12DenseMapInfoIS5_EENS_6detail12DenseMapPairIS5_S6_EEEES5_S6_S8_SB_E6lookupES5_.exit: ; preds = %if.end9.i.i, %entry, %if.then.i
  %retval.0.i = phi ptr [ %7, %if.then.i ], [ null, %entry ], [ null, %if.end9.i.i ]
  ret ptr %retval.0.i
}